target datalayout = "e-m:e-p270:32:32-p271:32:32-p272:64:64-i64:64-i128:128-f80:128-n8:16:32:64-S128"
target triple = "x86_64-pc-linux-gnu"

; Function Attrs: nounwind uwtable
define internal i32 @parse_key_value_pair(ptr noundef %0, ptr noundef %1, ptr noundef %2, ptr noundef %3, i32 noundef %4) #0 {
  %6 = alloca ptr, align 8
  %7 = alloca ptr, align 8
  %8 = alloca ptr, align 8
  %9 = alloca ptr, align 8
  %10 = alloca i32, align 4
  %11 = alloca ptr, align 8
  %12 = alloca ptr, align 8
  %13 = alloca i32, align 4
  store ptr %0, ptr %6, align 8, !tbaa !25
  store ptr %1, ptr %7, align 8, !tbaa !34
  store ptr %2, ptr %8, align 8, !tbaa !16
  store ptr %3, ptr %9, align 8, !tbaa !16
  store i32 %4, ptr %10, align 4, !tbaa !14
  call void @llvm.lifetime.start.p0(i64 8, ptr %11) #7
  %14 = load ptr, ptr %7, align 8, !tbaa !34
  %15 = load ptr, ptr %8, align 8, !tbaa !16
  %16 = call ptr @av_get_token(ptr noundef %14, ptr noundef %15)
  store ptr %16, ptr %11, align 8, !tbaa !16
  call void @llvm.lifetime.start.p0(i64 8, ptr %12) #7
  store ptr null, ptr %12, align 8, !tbaa !16
  call void @llvm.lifetime.start.p0(i64 4, ptr %13) #7
  %17 = load ptr, ptr %11, align 8, !tbaa !16
  %18 = icmp ne ptr %17, null
  br i1 %18, label %19, label %37

19:                                               ; preds = %5
  %20 = load ptr, ptr %11, align 8, !tbaa !16
  %21 = load i8, ptr %20, align 1, !tbaa !20
  %22 = sext i8 %21 to i32
  %23 = icmp ne i32 %22, 0
  br i1 %23, label %24, label %37

24:                                               ; preds = %19
  %25 = load ptr, ptr %7, align 8, !tbaa !34
  %26 = load ptr, ptr %25, align 8, !tbaa !16
  %27 = load ptr, ptr %8, align 8, !tbaa !16
  %28 = call i64 @strspn(ptr noundef %26, ptr noundef %27) #9
  %29 = icmp ne i64 %28, 0
  br i1 %29, label %30, label %37

30:                                               ; preds = %24
  %31 = load ptr, ptr %7, align 8, !tbaa !34
  %32 = load ptr, ptr %31, align 8, !tbaa !16
  %33 = getelementptr inbounds nuw i8, ptr %32, i32 1
  store ptr %33, ptr %31, align 8, !tbaa !16
  %34 = load ptr, ptr %7, align 8, !tbaa !34
  %35 = load ptr, ptr %9, align 8, !tbaa !16
  %36 = call ptr @av_get_token(ptr noundef %34, ptr noundef %35)
  store ptr %36, ptr %12, align 8, !tbaa !16
  br label %37

37:                                               ; preds = %30, %24, %19, %5
  %38 = load ptr, ptr %11, align 8, !tbaa !16
  %39 = icmp ne ptr %38, null
  br i1 %39, label %40, label %59

40:                                               ; preds = %37
  %41 = load ptr, ptr %11, align 8, !tbaa !16
  %42 = load i8, ptr %41, align 1, !tbaa !20
  %43 = sext i8 %42 to i32
  %44 = icmp ne i32 %43, 0
  br i1 %44, label %45, label %59

45:                                               ; preds = %40
  %46 = load ptr, ptr %12, align 8, !tbaa !16
  %47 = icmp ne ptr %46, null
  br i1 %47, label %48, label %59

48:                                               ; preds = %45
  %49 = load ptr, ptr %12, align 8, !tbaa !16
  %50 = load i8, ptr %49, align 1, !tbaa !20
  %51 = sext i8 %50 to i32
  %52 = icmp ne i32 %51, 0
  br i1 %52, label %53, label %59

53:                                               ; preds = %48
  %54 = load ptr, ptr %6, align 8, !tbaa !25
  %55 = load ptr, ptr %11, align 8, !tbaa !16
  %56 = load ptr, ptr %12, align 8, !tbaa !16
  %57 = load i32, ptr %10, align 4, !tbaa !14
  %58 = call i32 @av_dict_set(ptr noundef %54, ptr noundef %55, ptr noundef %56, i32 noundef %57)
  store i32 %58, ptr %13, align 4, !tbaa !14
  br label %60

59:                                               ; preds = %48, %45, %40, %37
  store i32 -22, ptr %13, align 4, !tbaa !14
  br label %60

60:                                               ; preds = %59, %53
  call void @av_freep(ptr noundef %11)
  call void @av_freep(ptr noundef %12)
  %61 = load i32, ptr %13, align 4, !tbaa !14
  call void @llvm.lifetime.end.p0(i64 4, ptr %13) #7
  call void @llvm.lifetime.end.p0(i64 8, ptr %12) #7
  call void @llvm.lifetime.end.p0(i64 8, ptr %11) #7
  ret i32 %61
}

; Function Attrs: nounwind uwtable
define i32 @av_dict_parse_string(ptr noundef %0, ptr noundef %1, ptr noundef %2, ptr noundef %3, i32 noundef %4) #0 {
  %6 = alloca i32, align 4
  %7 = alloca ptr, align 8
  %8 = alloca ptr, align 8
  %9 = alloca ptr, align 8
  %10 = alloca ptr, align 8
  %11 = alloca i32, align 4
  %12 = alloca i32, align 4
  %13 = alloca i32, align 4
  store ptr %0, ptr %7, align 8, !tbaa !25
  store ptr %1, ptr %8, align 8, !tbaa !16
  store ptr %2, ptr %9, align 8, !tbaa !16
  store ptr %3, ptr %10, align 8, !tbaa !16
  store i32 %4, ptr %11, align 4, !tbaa !14
  call void @llvm.lifetime.start.p0(i64 4, ptr %12) #7
  %14 = load ptr, ptr %8, align 8, !tbaa !16
  %15 = icmp ne ptr %14, null
  br i1 %15, label %17, label %16

16:                                               ; preds = %5
  store i32 0, ptr %6, align 4
  store i32 1, ptr %13, align 4
  br label %42

17:                                               ; preds = %5
  %18 = load i32, ptr %11, align 4, !tbaa !14
  %19 = and i32 %18, -13
  store i32 %19, ptr %11, align 4, !tbaa !14
  br label %20

20:                                               ; preds = %40, %17
  %21 = load ptr, ptr %8, align 8, !tbaa !16
  %22 = load i8, ptr %21, align 1, !tbaa !20
  %23 = icmp ne i8 %22, 0
  br i1 %23, label %24, label %41

24:                                               ; preds = %20
  %25 = load ptr, ptr %7, align 8, !tbaa !25
  %26 = load ptr, ptr %9, align 8, !tbaa !16
  %27 = load ptr, ptr %10, align 8, !tbaa !16
  %28 = load i32, ptr %11, align 4, !tbaa !14
  %29 = call i32 @parse_key_value_pair(ptr noundef %25, ptr noundef %8, ptr noundef %26, ptr noundef %27, i32 noundef %28)
  store i32 %29, ptr %12, align 4, !tbaa !14
  %30 = icmp slt i32 %29, 0
  br i1 %30, label %31, label %33

31:                                               ; preds = %24
  %32 = load i32, ptr %12, align 4, !tbaa !14
  store i32 %32, ptr %6, align 4
  store i32 1, ptr %13, align 4
  br label %42

33:                                               ; preds = %24
  %34 = load ptr, ptr %8, align 8, !tbaa !16
  %35 = load i8, ptr %34, align 1, !tbaa !20
  %36 = icmp ne i8 %35, 0
  br i1 %36, label %37, label %40

37:                                               ; preds = %33
  %38 = load ptr, ptr %8, align 8, !tbaa !16
  %39 = getelementptr inbounds nuw i8, ptr %38, i32 1
  store ptr %39, ptr %8, align 8, !tbaa !16
  br label %40

40:                                               ; preds = %37, %33
  br label %20, !llvm.loop !33

41:                                               ; preds = %20
  store i32 0, ptr %6, align 4
  store i32 1, ptr %13, align 4
  br label %42

42:                                               ; preds = %41, %31, %16
  call void @llvm.lifetime.end.p0(i64 4, ptr %12) #7
  %43 = load i32, ptr %6, align 4
  ret i32 %43
}