; Function Attrs: nounwind uwtable
define range(i32 -22, 1) i32 @av_dict_parse_string(ptr noundef %0, ptr noundef %1, ptr noundef %2, ptr noundef %3, i32 noundef %4) local_unnamed_addr #3 {
  %6 = alloca ptr, align 8
  %7 = alloca ptr, align 8
  %8 = alloca ptr, align 8
  store ptr %1, ptr %8, align 8, !tbaa !21
  %.not = icmp eq ptr %1, null
  br i1 %.not, label %.loopexit, label %9

9:                                                ; preds = %5
  %10 = and i32 %4, -13
  %11 = load i8, ptr %1, align 1, !tbaa !15
  %.not79 = icmp eq i8 %11, 0
  br i1 %.not79, label %.loopexit, label %.lr.ph

.lr.ph:                                           ; preds = %9, %32
  call void @llvm.lifetime.start.p0(i64 8, ptr nonnull %6) #8
  %12 = call ptr @av_get_token(ptr noundef nonnull %8, ptr noundef %2) #8
  store ptr %12, ptr %6, align 8, !tbaa !21
  call void @llvm.lifetime.start.p0(i64 8, ptr nonnull %7) #8
  store ptr null, ptr %7, align 8, !tbaa !21
  %.not.i = icmp eq ptr %12, null
  br i1 %.not.i, label %parse_key_value_pair.exit, label %13

13:                                               ; preds = %.lr.ph
  %14 = load i8, ptr %12, align 1, !tbaa !15
  %.not13.i = icmp eq i8 %14, 0
  br i1 %.not13.i, label %parse_key_value_pair.exit, label %15

15:                                               ; preds = %13
  %16 = load ptr, ptr %8, align 8, !tbaa !21
  %17 = call i64 @strspn(ptr noundef %16, ptr noundef %2) #9
  %.not14.i = icmp eq i64 %17, 0
  br i1 %.not14.i, label %parse_key_value_pair.exit, label %18

18:                                               ; preds = %15
  %19 = getelementptr inbounds nuw i8, ptr %16, i64 1
  store ptr %19, ptr %8, align 8, !tbaa !21
  %20 = call ptr @av_get_token(ptr noundef nonnull %8, ptr noundef %3) #8
  store ptr %20, ptr %7, align 8, !tbaa !21
  %21 = load i8, ptr %12, align 1, !tbaa !15
  %22 = icmp ne i8 %21, 0
  %23 = icmp ne ptr %20, null
  %or.cond.i = select i1 %22, i1 %23, i1 false
  br i1 %or.cond.i, label %24, label %parse_key_value_pair.exit

24:                                               ; preds = %18
  %25 = load i8, ptr %20, align 1, !tbaa !15
  %.not16.i = icmp eq i8 %25, 0
  br i1 %.not16.i, label %parse_key_value_pair.exit, label %26

26:                                               ; preds = %24
  %27 = call i32 @av_dict_set(ptr noundef %0, ptr noundef nonnull %12, ptr noundef nonnull %20, i32 noundef range(i32 0, -12) %10)
  br label %parse_key_value_pair.exit

parse_key_value_pair.exit:                        ; preds = %.lr.ph, %13, %15, %18, %24, %26
  %.0.i = phi i32 [ %27, %26 ], [ -22, %24 ], [ -22, %18 ], [ -22, %.lr.ph ], [ -22, %15 ], [ -22, %13 ]
  call void @av_freep(ptr noundef nonnull %6) #8
  call void @av_freep(ptr noundef nonnull %7) #8
  call void @llvm.lifetime.end.p0(i64 8, ptr nonnull %7) #8
  call void @llvm.lifetime.end.p0(i64 8, ptr nonnull %6) #8
  %28 = icmp slt i32 %.0.i, 0
  br i1 %28, label %.loopexit, label %29

29:                                               ; preds = %parse_key_value_pair.exit
  %30 = load ptr, ptr %8, align 8, !tbaa !21
  %31 = load i8, ptr %30, align 1, !tbaa !15
  %.not8 = icmp eq i8 %31, 0
  br i1 %.not8, label %.loopexit, label %32

32:                                               ; preds = %29
  %33 = getelementptr inbounds nuw i8, ptr %30, i64 1
  store ptr %33, ptr %8, align 8, !tbaa !21
  %.pre = load i8, ptr %33, align 1, !tbaa !15
  %34 = icmp eq i8 %.pre, 0
  br i1 %34, label %.loopexit, label %.lr.ph, !llvm.loop !25

.loopexit:                                        ; preds = %29, %parse_key_value_pair.exit, %32, %9, %5
  %.0 = phi i32 [ 0, %5 ], [ 0, %9 ], [ 0, %29 ], [ %.0.i, %parse_key_value_pair.exit ], [ 0, %32 ]
  ret i32 %.0
}